(lp0
(lp1
(lp2
ccopy_reg
_reconstructor
p3
(ckreveik.classes.network
Motif
p4
c__builtin__
object
p5
Ntp6
Rp7
(dp8
S'code'
p9
S'3-6'
p10
sS'adjacency'
p11
cnumpy.core.multiarray
_reconstruct
p12
(cnumpy
ndarray
p13
(I0
tp14
S'b'
p15
tp16
Rp17
(I1
(I3
I3
tp18
cnumpy
dtype
p19
(S'b1'
p20
I0
I1
tp21
Rp22
(I3
S'|'
p23
NNNI-1
I-1
I0
tp24
bI00
S'\x00\x00\x00\x00\x00\x00\x01\x01\x00'
p25
tp26
bsS'degree'
p27
I3
sS'probes'
p28
(lp29
sbaI5968
aa(lp30
g3
(g4
g5
Ntp31
Rp32
(dp33
g9
S'3-7'
p34
sg11
g12
(g13
(I0
tp35
g15
tp36
Rp37
(I1
(I3
I3
tp38
g22
I00
S'\x00\x00\x00\x00\x00\x00\x01\x01\x01'
p39
tp40
bsg27
I3
sg28
(lp41
sbaI1891
aa(lp42
g3
(g4
g5
Ntp43
Rp44
(dp45
g9
S'3-12'
p46
sg11
g12
(g13
(I0
tp47
g15
tp48
Rp49
(I1
(I3
I3
tp50
g22
I00
S'\x00\x00\x00\x00\x00\x01\x01\x00\x00'
p51
tp52
bsg27
I3
sg28
(lp53
sbaI4878
aa(lp54
g3
(g4
g5
Ntp55
Rp56
(dp57
g9
S'3-13'
p58
sg11
g12
(g13
(I0
tp59
g15
tp60
Rp61
(I1
(I3
I3
tp62
g22
I00
S'\x00\x00\x00\x00\x00\x01\x01\x00\x01'
p63
tp64
bsg27
I3
sg28
(lp65
sbaI2477
aa(lp66
g3
(g4
g5
Ntp67
Rp68
(dp69
g9
S'3-14'
p70
sg11
g12
(g13
(I0
tp71
g15
tp72
Rp73
(I1
(I3
I3
tp74
g22
I00
S'\x00\x00\x00\x00\x00\x01\x01\x01\x00'
p75
tp76
bsg27
I3
sg28
(lp77
sbaI1575
aa(lp78
g3
(g4
g5
Ntp79
Rp80
(dp81
g9
S'3-15'
p82
sg11
g12
(g13
(I0
tp83
g15
tp84
Rp85
(I1
(I3
I3
tp86
g22
I00
S'\x00\x00\x00\x00\x00\x01\x01\x01\x01'
p87
tp88
bsg27
I3
sg28
(lp89
sbaI1022
aa(lp90
g3
(g4
g5
Ntp91
Rp92
(dp93
g9
S'3-22'
p94
sg11
g12
(g13
(I0
tp95
g15
tp96
Rp97
(I1
(I3
I3
tp98
g22
I00
S'\x00\x00\x00\x00\x01\x00\x01\x01\x00'
p99
tp100
bsg27
I3
sg28
(lp101
sbaI1704
aa(lp102
g3
(g4
g5
Ntp103
Rp104
(dp105
g9
S'3-23'
p106
sg11
g12
(g13
(I0
tp107
g15
tp108
Rp109
(I1
(I3
I3
tp110
g22
I00
S'\x00\x00\x00\x00\x01\x00\x01\x01\x01'
p111
tp112
bsg27
I3
sg28
(lp113
sbaI1059
aa(lp114
g3
(g4
g5
Ntp115
Rp116
(dp117
g9
S'3-28'
p118
sg11
g12
(g13
(I0
tp119
g15
tp120
Rp121
(I1
(I3
I3
tp122
g22
I00
S'\x00\x00\x00\x00\x01\x01\x01\x00\x00'
p123
tp124
bsg27
I3
sg28
(lp125
sbaI1893
aa(lp126
g3
(g4
g5
Ntp127
Rp128
(dp129
g9
S'3-29'
p130
sg11
g12
(g13
(I0
tp131
g15
tp132
Rp133
(I1
(I3
I3
tp134
g22
I00
S'\x00\x00\x00\x00\x01\x01\x01\x00\x01'
p135
tp136
bsg27
I3
sg28
(lp137
sbaI1037
aa(lp138
g3
(g4
g5
Ntp139
Rp140
(dp141
g9
S'3-30'
p142
sg11
g12
(g13
(I0
tp143
g15
tp144
Rp145
(I1
(I3
I3
tp146
g22
I00
S'\x00\x00\x00\x00\x01\x01\x01\x01\x00'
p147
tp148
bsg27
I3
sg28
(lp149
sbaI881
aa(lp150
g3
(g4
g5
Ntp151
Rp152
(dp153
g9
S'3-31'
p154
sg11
g12
(g13
(I0
tp155
g15
tp156
Rp157
(I1
(I3
I3
tp158
g22
I00
S'\x00\x00\x00\x00\x01\x01\x01\x01\x01'
p159
tp160
bsg27
I3
sg28
(lp161
sbaI991
aa(lp162
g3
(g4
g5
Ntp163
Rp164
(dp165
g9
S'3-36'
p166
sg11
g12
(g13
(I0
tp167
g15
tp168
Rp169
(I1
(I3
I3
tp170
g22
I00
S'\x00\x00\x00\x01\x00\x00\x01\x00\x00'
p171
tp172
bsg27
I3
sg28
(lp173
sbaI3440
aa(lp174
g3
(g4
g5
Ntp175
Rp176
(dp177
g9
S'3-37'
p178
sg11
g12
(g13
(I0
tp179
g15
tp180
Rp181
(I1
(I3
I3
tp182
g22
I00
S'\x00\x00\x00\x01\x00\x00\x01\x00\x01'
p183
tp184
bsg27
I3
sg28
(lp185
sbaI1557
aa(lp186
g3
(g4
g5
Ntp187
Rp188
(dp189
g9
S'3-38'
p190
sg11
g12
(g13
(I0
tp191
g15
tp192
Rp193
(I1
(I3
I3
tp194
g22
I00
S'\x00\x00\x00\x01\x00\x00\x01\x01\x00'
p195
tp196
bsg27
I3
sg28
(lp197
sbaI1680
aa(lp198
g3
(g4
g5
Ntp199
Rp200
(dp201
g9
S'3-39'
p202
sg11
g12
(g13
(I0
tp203
g15
tp204
Rp205
(I1
(I3
I3
tp206
g22
I00
S'\x00\x00\x00\x01\x00\x00\x01\x01\x01'
p207
tp208
bsg27
I3
sg28
(lp209
sbaI774
aa(lp210
g3
(g4
g5
Ntp211
Rp212
(dp213
g9
S'3-45'
p214
sg11
g12
(g13
(I0
tp215
g15
tp216
Rp217
(I1
(I3
I3
tp218
g22
I00
S'\x00\x00\x00\x01\x00\x01\x01\x00\x01'
p219
tp220
bsg27
I3
sg28
(lp221
sbaI375
aa(lp222
g3
(g4
g5
Ntp223
Rp224
(dp225
g9
S'3-46'
p226
sg11
g12
(g13
(I0
tp227
g15
tp228
Rp229
(I1
(I3
I3
tp230
g22
I00
S'\x00\x00\x00\x01\x00\x01\x01\x01\x00'
p231
tp232
bsg27
I3
sg28
(lp233
sbaI605
aa(lp234
g3
(g4
g5
Ntp235
Rp236
(dp237
g9
S'3-47'
p238
sg11
g12
(g13
(I0
tp239
g15
tp240
Rp241
(I1
(I3
I3
tp242
g22
I00
S'\x00\x00\x00\x01\x00\x01\x01\x01\x01'
p243
tp244
bsg27
I3
sg28
(lp245
sbaI509
aa(lp246
g3
(g4
g5
Ntp247
Rp248
(dp249
g9
S'3-53'
p250
sg11
g12
(g13
(I0
tp251
g15
tp252
Rp253
(I1
(I3
I3
tp254
g22
I00
S'\x00\x00\x00\x01\x01\x00\x01\x00\x01'
p255
tp256
bsg27
I3
sg28
(lp257
sbaI316
aa(lp258
g3
(g4
g5
Ntp259
Rp260
(dp261
g9
S'3-55'
p262
sg11
g12
(g13
(I0
tp263
g15
tp264
Rp265
(I1
(I3
I3
tp266
g22
I00
S'\x00\x00\x00\x01\x01\x00\x01\x01\x01'
p267
tp268
bsg27
I3
sg28
(lp269
sbaI299
aa(lp270
g3
(g4
g5
Ntp271
Rp272
(dp273
g9
S'3-63'
p274
sg11
g12
(g13
(I0
tp275
g15
tp276
Rp277
(I1
(I3
I3
tp278
g22
I00
S'\x00\x00\x00\x01\x01\x01\x01\x01\x01'
p279
tp280
bsg27
I3
sg28
(lp281
sbaI108
aa(lp282
g3
(g4
g5
Ntp283
Rp284
(dp285
g9
S'3-66'
p286
sg11
g12
(g13
(I0
tp287
g15
tp288
Rp289
(I1
(I3
I3
tp290
g22
I00
S'\x00\x00\x01\x00\x00\x00\x00\x01\x00'
p291
tp292
bsg27
I3
sg28
(lp293
sbaI4633
aa(lp294
g3
(g4
g5
Ntp295
Rp296
(dp297
g9
S'3-67'
p298
sg11
g12
(g13
(I0
tp299
g15
tp300
Rp301
(I1
(I3
I3
tp302
g22
I00
S'\x00\x00\x01\x00\x00\x00\x00\x01\x01'
p303
tp304
bsg27
I3
sg28
(lp305
sbaI2165
aa(lp306
g3
(g4
g5
Ntp307
Rp308
(dp309
g9
S'3-70'
p310
sg11
g12
(g13
(I0
tp311
g15
tp312
Rp313
(I1
(I3
I3
tp314
g22
I00
S'\x00\x00\x01\x00\x00\x00\x01\x01\x00'
p315
tp316
bsg27
I3
sg28
(lp317
sbaI1504
aa(lp318
g3
(g4
g5
Ntp319
Rp320
(dp321
g9
S'3-71'
p322
sg11
g12
(g13
(I0
tp323
g15
tp324
Rp325
(I1
(I3
I3
tp326
g22
I00
S'\x00\x00\x01\x00\x00\x00\x01\x01\x01'
p327
tp328
bsg27
I3
sg28
(lp329
sbaI1377
aa(lp330
g3
(g4
g5
Ntp331
Rp332
(dp333
g9
S'3-73'
p334
sg11
g12
(g13
(I0
tp335
g15
tp336
Rp337
(I1
(I3
I3
tp338
g22
I00
S'\x00\x00\x01\x00\x00\x01\x00\x00\x01'
p339
tp340
bsg27
I3
sg28
(lp341
sbaI2077
aa(lp342
g3
(g4
g5
Ntp343
Rp344
(dp345
g9
S'3-74'
p346
sg11
g12
(g13
(I0
tp347
g15
tp348
Rp349
(I1
(I3
I3
tp350
g22
I00
S'\x00\x00\x01\x00\x00\x01\x00\x01\x00'
p351
tp352
bsg27
I3
sg28
(lp353
sbaI1462
aa(lp354
g3
(g4
g5
Ntp355
Rp356
(dp357
g9
S'3-75'
p358
sg11
g12
(g13
(I0
tp359
g15
tp360
Rp361
(I1
(I3
I3
tp362
g22
I00
S'\x00\x00\x01\x00\x00\x01\x00\x01\x01'
p363
tp364
bsg27
I3
sg28
(lp365
sbaI1158
aa(lp366
g3
(g4
g5
Ntp367
Rp368
(dp369
g9
S'3-76'
p370
sg11
g12
(g13
(I0
tp371
g15
tp372
Rp373
(I1
(I3
I3
tp374
g22
I00
S'\x00\x00\x01\x00\x00\x01\x01\x00\x00'
p375
tp376
bsg27
I3
sg28
(lp377
sbaI1881
aa(lp378
g3
(g4
g5
Ntp379
Rp380
(dp381
g9
S'3-77'
p382
sg11
g12
(g13
(I0
tp383
g15
tp384
Rp385
(I1
(I3
I3
tp386
g22
I00
S'\x00\x00\x01\x00\x00\x01\x01\x00\x01'
p387
tp388
bsg27
I3
sg28
(lp389
sbaI700
aa(lp390
g3
(g4
g5
Ntp391
Rp392
(dp393
g9
S'3-78'
p394
sg11
g12
(g13
(I0
tp395
g15
tp396
Rp397
(I1
(I3
I3
tp398
g22
I00
S'\x00\x00\x01\x00\x00\x01\x01\x01\x00'
p399
tp400
bsg27
I3
sg28
(lp401
sbaI377
aa(lp402
g3
(g4
g5
Ntp403
Rp404
(dp405
g9
S'3-79'
p406
sg11
g12
(g13
(I0
tp407
g15
tp408
Rp409
(I1
(I3
I3
tp410
g22
I00
S'\x00\x00\x01\x00\x00\x01\x01\x01\x01'
p411
tp412
bsg27
I3
sg28
(lp413
sbaI707
aa(lp414
g3
(g4
g5
Ntp415
Rp416
(dp417
g9
S'3-82'
p418
sg11
g12
(g13
(I0
tp419
g15
tp420
Rp421
(I1
(I3
I3
tp422
g22
I00
S'\x00\x00\x01\x00\x01\x00\x00\x01\x00'
p423
tp424
bsg27
I3
sg28
(lp425
sbaI2133
aa(lp426
g3
(g4
g5
Ntp427
Rp428
(dp429
g9
S'3-83'
p430
sg11
g12
(g13
(I0
tp431
g15
tp432
Rp433
(I1
(I3
I3
tp434
g22
I00
S'\x00\x00\x01\x00\x01\x00\x00\x01\x01'
p435
tp436
bsg27
I3
sg28
(lp437
sbaI800
aa(lp438
g3
(g4
g5
Ntp439
Rp440
(dp441
g9
S'3-86'
p442
sg11
g12
(g13
(I0
tp443
g15
tp444
Rp445
(I1
(I3
I3
tp446
g22
I00
S'\x00\x00\x01\x00\x01\x00\x01\x01\x00'
p447
tp448
bsg27
I3
sg28
(lp449
sbaI819
aa(lp450
g3
(g4
g5
Ntp451
Rp452
(dp453
g9
S'3-87'
p454
sg11
g12
(g13
(I0
tp455
g15
tp456
Rp457
(I1
(I3
I3
tp458
g22
I00
S'\x00\x00\x01\x00\x01\x00\x01\x01\x01'
p459
tp460
bsg27
I3
sg28
(lp461
sbaI433
aa(lp462
g3
(g4
g5
Ntp463
Rp464
(dp465
g9
S'3-88'
p466
sg11
g12
(g13
(I0
tp467
g15
tp468
Rp469
(I1
(I3
I3
tp470
g22
I00
S'\x00\x00\x01\x00\x01\x01\x00\x00\x00'
p471
tp472
bsg27
I3
sg28
(lp473
sbaI1300
aa(lp474
g3
(g4
g5
Ntp475
Rp476
(dp477
g9
S'3-89'
p478
sg11
g12
(g13
(I0
tp479
g15
tp480
Rp481
(I1
(I3
I3
tp482
g22
I00
S'\x00\x00\x01\x00\x01\x01\x00\x00\x01'
p483
tp484
bsg27
I3
sg28
(lp485
sbaI700
aa(lp486
g3
(g4
g5
Ntp487
Rp488
(dp489
g9
S'3-90'
p490
sg11
g12
(g13
(I0
tp491
g15
tp492
Rp493
(I1
(I3
I3
tp494
g22
I00
S'\x00\x00\x01\x00\x01\x01\x00\x01\x00'
p495
tp496
bsg27
I3
sg28
(lp497
sbaI874
aa(lp498
g3
(g4
g5
Ntp499
Rp500
(dp501
g9
S'3-91'
p502
sg11
g12
(g13
(I0
tp503
g15
tp504
Rp505
(I1
(I3
I3
tp506
g22
I00
S'\x00\x00\x01\x00\x01\x01\x00\x01\x01'
p507
tp508
bsg27
I3
sg28
(lp509
sbaI658
aa(lp510
g3
(g4
g5
Ntp511
Rp512
(dp513
g9
S'3-92'
p514
sg11
g12
(g13
(I0
tp515
g15
tp516
Rp517
(I1
(I3
I3
tp518
g22
I00
S'\x00\x00\x01\x00\x01\x01\x01\x00\x00'
p519
tp520
bsg27
I3
sg28
(lp521
sbaI938
aa(lp522
g3
(g4
g5
Ntp523
Rp524
(dp525
g9
S'3-93'
p526
sg11
g12
(g13
(I0
tp527
g15
tp528
Rp529
(I1
(I3
I3
tp530
g22
I00
S'\x00\x00\x01\x00\x01\x01\x01\x00\x01'
p531
tp532
bsg27
I3
sg28
(lp533
sbaI413
aa(lp534
g3
(g4
g5
Ntp535
Rp536
(dp537
g9
S'3-94'
p538
sg11
g12
(g13
(I0
tp539
g15
tp540
Rp541
(I1
(I3
I3
tp542
g22
I00
S'\x00\x00\x01\x00\x01\x01\x01\x01\x00'
p543
tp544
bsg27
I3
sg28
(lp545
sbaI251
aa(lp546
g3
(g4
g5
Ntp547
Rp548
(dp549
g9
S'3-95'
p550
sg11
g12
(g13
(I0
tp551
g15
tp552
Rp553
(I1
(I3
I3
tp554
g22
I00
S'\x00\x00\x01\x00\x01\x01\x01\x01\x01'
p555
tp556
bsg27
I3
sg28
(lp557
sbaI414
aa(lp558
g3
(g4
g5
Ntp559
Rp560
(dp561
g9
S'3-97'
p562
sg11
g12
(g13
(I0
tp563
g15
tp564
Rp565
(I1
(I3
I3
tp566
g22
I00
S'\x00\x00\x01\x01\x00\x00\x00\x00\x01'
p567
tp568
bsg27
I3
sg28
(lp569
sbaI1610
aa(lp570
g3
(g4
g5
Ntp571
Rp572
(dp573
g9
S'3-98'
p574
sg11
g12
(g13
(I0
tp575
g15
tp576
Rp577
(I1
(I3
I3
tp578
g22
I00
S'\x00\x00\x01\x01\x00\x00\x00\x01\x00'
p579
tp580
bsg27
I3
sg28
(lp581
sbaI1438
aa(lp582
g3
(g4
g5
Ntp583
Rp584
(dp585
g9
S'3-99'
p586
sg11
g12
(g13
(I0
tp587
g15
tp588
Rp589
(I1
(I3
I3
tp590
g22
I00
S'\x00\x00\x01\x01\x00\x00\x00\x01\x01'
p591
tp592
bsg27
I3
sg28
(lp593
sbaI841
aa(lp594
g3
(g4
g5
Ntp595
Rp596
(dp597
g9
S'3-101'
p598
sg11
g12
(g13
(I0
tp599
g15
tp600
Rp601
(I1
(I3
I3
tp602
g22
I00
S'\x00\x00\x01\x01\x00\x00\x01\x00\x01'
p603
tp604
bsg27
I3
sg28
(lp605
sbaI707
aa(lp606
g3
(g4
g5
Ntp607
Rp608
(dp609
g9
S'3-102'
p610
sg11
g12
(g13
(I0
tp611
g15
tp612
Rp613
(I1
(I3
I3
tp614
g22
I00
S'\x00\x00\x01\x01\x00\x00\x01\x01\x00'
p615
tp616
bsg27
I3
sg28
(lp617
sbaI1164
aa(lp618
g3
(g4
g5
Ntp619
Rp620
(dp621
g9
S'3-103'
p622
sg11
g12
(g13
(I0
tp623
g15
tp624
Rp625
(I1
(I3
I3
tp626
g22
I00
S'\x00\x00\x01\x01\x00\x00\x01\x01\x01'
p627
tp628
bsg27
I3
sg28
(lp629
sbaI307
aa(lp630
g3
(g4
g5
Ntp631
Rp632
(dp633
g9
S'3-104'
p634
sg11
g12
(g13
(I0
tp635
g15
tp636
Rp637
(I1
(I3
I3
tp638
g22
I00
S'\x00\x00\x01\x01\x00\x01\x00\x00\x00'
p639
tp640
bsg27
I3
sg28
(lp641
sbaI1144
aa(lp642
g3
(g4
g5
Ntp643
Rp644
(dp645
g9
S'3-105'
p646
sg11
g12
(g13
(I0
tp647
g15
tp648
Rp649
(I1
(I3
I3
tp650
g22
I00
S'\x00\x00\x01\x01\x00\x01\x00\x00\x01'
p651
tp652
bsg27
I3
sg28
(lp653
sbaI400
aa(lp654
g3
(g4
g5
Ntp655
Rp656
(dp657
g9
S'3-106'
p658
sg11
g12
(g13
(I0
tp659
g15
tp660
Rp661
(I1
(I3
I3
tp662
g22
I00
S'\x00\x00\x01\x01\x00\x01\x00\x01\x00'
p663
tp664
bsg27
I3
sg28
(lp665
sbaI416
aa(lp666
g3
(g4
g5
Ntp667
Rp668
(dp669
g9
S'3-107'
p670
sg11
g12
(g13
(I0
tp671
g15
tp672
Rp673
(I1
(I3
I3
tp674
g22
I00
S'\x00\x00\x01\x01\x00\x01\x00\x01\x01'
p675
tp676
bsg27
I3
sg28
(lp677
sbaI292
aa(lp678
g3
(g4
g5
Ntp679
Rp680
(dp681
g9
S'3-108'
p682
sg11
g12
(g13
(I0
tp683
g15
tp684
Rp685
(I1
(I3
I3
tp686
g22
I00
S'\x00\x00\x01\x01\x00\x01\x01\x00\x00'
p687
tp688
bsg27
I3
sg28
(lp689
sbaI398
aa(lp690
g3
(g4
g5
Ntp691
Rp692
(dp693
g9
S'3-109'
p694
sg11
g12
(g13
(I0
tp695
g15
tp696
Rp697
(I1
(I3
I3
tp698
g22
I00
S'\x00\x00\x01\x01\x00\x01\x01\x00\x01'
p699
tp700
bsg27
I3
sg28
(lp701
sbaI559
aa(lp702
g3
(g4
g5
Ntp703
Rp704
(dp705
g9
S'3-110'
p706
sg11
g12
(g13
(I0
tp707
g15
tp708
Rp709
(I1
(I3
I3
tp710
g22
I00
S'\x00\x00\x01\x01\x00\x01\x01\x01\x00'
p711
tp712
bsg27
I3
sg28
(lp713
sbaI341
aa(lp714
g3
(g4
g5
Ntp715
Rp716
(dp717
g9
S'3-111'
p718
sg11
g12
(g13
(I0
tp719
g15
tp720
Rp721
(I1
(I3
I3
tp722
g22
I00
S'\x00\x00\x01\x01\x00\x01\x01\x01\x01'
p723
tp724
bsg27
I3
sg28
(lp725
sbaI214
aa(lp726
g3
(g4
g5
Ntp727
Rp728
(dp729
g9
S'3-113'
p730
sg11
g12
(g13
(I0
tp731
g15
tp732
Rp733
(I1
(I3
I3
tp734
g22
I00
S'\x00\x00\x01\x01\x01\x00\x00\x00\x01'
p735
tp736
bsg27
I3
sg28
(lp737
sbaI600
aa(lp738
g3
(g4
g5
Ntp739
Rp740
(dp741
g9
S'3-114'
p742
sg11
g12
(g13
(I0
tp743
g15
tp744
Rp745
(I1
(I3
I3
tp746
g22
I00
S'\x00\x00\x01\x01\x01\x00\x00\x01\x00'
p747
tp748
bsg27
I3
sg28
(lp749
sbaI778
aa(lp750
g3
(g4
g5
Ntp751
Rp752
(dp753
g9
S'3-115'
p754
sg11
g12
(g13
(I0
tp755
g15
tp756
Rp757
(I1
(I3
I3
tp758
g22
I00
S'\x00\x00\x01\x01\x01\x00\x00\x01\x01'
p759
tp760
bsg27
I3
sg28
(lp761
sbaI326
aa(lp762
g3
(g4
g5
Ntp763
Rp764
(dp765
g9
S'3-117'
p766
sg11
g12
(g13
(I0
tp767
g15
tp768
Rp769
(I1
(I3
I3
tp770
g22
I00
S'\x00\x00\x01\x01\x01\x00\x01\x00\x01'
p771
tp772
bsg27
I3
sg28
(lp773
sbaI179
aa(lp774
g3
(g4
g5
Ntp775
Rp776
(dp777
g9
S'3-118'
p778
sg11
g12
(g13
(I0
tp779
g15
tp780
Rp781
(I1
(I3
I3
tp782
g22
I00
S'\x00\x00\x01\x01\x01\x00\x01\x01\x00'
p783
tp784
bsg27
I3
sg28
(lp785
sbaI297
aa(lp786
g3
(g4
g5
Ntp787
Rp788
(dp789
g9
S'3-119'
p790
sg11
g12
(g13
(I0
tp791
g15
tp792
Rp793
(I1
(I3
I3
tp794
g22
I00
S'\x00\x00\x01\x01\x01\x00\x01\x01\x01'
p795
tp796
bsg27
I3
sg28
(lp797
sbaI222
aa(lp798
g3
(g4
g5
Ntp799
Rp800
(dp801
g9
S'3-120'
p802
sg11
g12
(g13
(I0
tp803
g15
tp804
Rp805
(I1
(I3
I3
tp806
g22
I00
S'\x00\x00\x01\x01\x01\x01\x00\x00\x00'
p807
tp808
bsg27
I3
sg28
(lp809
sbaI680
aa(lp810
g3
(g4
g5
Ntp811
Rp812
(dp813
g9
S'3-121'
p814
sg11
g12
(g13
(I0
tp815
g15
tp816
Rp817
(I1
(I3
I3
tp818
g22
I00
S'\x00\x00\x01\x01\x01\x01\x00\x00\x01'
p819
tp820
bsg27
I3
sg28
(lp821
sbaI419
aa(lp822
g3
(g4
g5
Ntp823
Rp824
(dp825
g9
S'3-122'
p826
sg11
g12
(g13
(I0
tp827
g15
tp828
Rp829
(I1
(I3
I3
tp830
g22
I00
S'\x00\x00\x01\x01\x01\x01\x00\x01\x00'
p831
tp832
bsg27
I3
sg28
(lp833
sbaI64
aa(lp834
g3
(g4
g5
Ntp835
Rp836
(dp837
g9
S'3-123'
p838
sg11
g12
(g13
(I0
tp839
g15
tp840
Rp841
(I1
(I3
I3
tp842
g22
I00
S'\x00\x00\x01\x01\x01\x01\x00\x01\x01'
p843
tp844
bsg27
I3
sg28
(lp845
sbaI581
aa(lp846
g3
(g4
g5
Ntp847
Rp848
(dp849
g9
S'3-124'
p850
sg11
g12
(g13
(I0
tp851
g15
tp852
Rp853
(I1
(I3
I3
tp854
g22
I00
S'\x00\x00\x01\x01\x01\x01\x01\x00\x00'
p855
tp856
bsg27
I3
sg28
(lp857
sbaI434
aa(lp858
g3
(g4
g5
Ntp859
Rp860
(dp861
g9
S'3-125'
p862
sg11
g12
(g13
(I0
tp863
g15
tp864
Rp865
(I1
(I3
I3
tp866
g22
I00
S'\x00\x00\x01\x01\x01\x01\x01\x00\x01'
p867
tp868
bsg27
I3
sg28
(lp869
sbaI361
aa(lp870
g3
(g4
g5
Ntp871
Rp872
(dp873
g9
S'3-126'
p874
sg11
g12
(g13
(I0
tp875
g15
tp876
Rp877
(I1
(I3
I3
tp878
g22
I00
S'\x00\x00\x01\x01\x01\x01\x01\x01\x00'
p879
tp880
bsg27
I3
sg28
(lp881
sbaI180
aa(lp882
g3
(g4
g5
Ntp883
Rp884
(dp885
g9
S'3-127'
p886
sg11
g12
(g13
(I0
tp887
g15
tp888
Rp889
(I1
(I3
I3
tp890
g22
I00
S'\x00\x00\x01\x01\x01\x01\x01\x01\x01'
p891
tp892
bsg27
I3
sg28
(lp893
sbaI181
aa(lp894
g3
(g4
g5
Ntp895
Rp896
(dp897
g9
S'3-130'
p898
sg11
g12
(g13
(I0
tp899
g15
tp900
Rp901
(I1
(I3
I3
tp902
g22
I00
S'\x00\x01\x00\x00\x00\x00\x00\x01\x00'
p903
tp904
bsg27
I3
sg28
(lp905
sbaI1353
aa(lp906
g3
(g4
g5
Ntp907
Rp908
(dp909
g9
S'3-133'
p910
sg11
g12
(g13
(I0
tp911
g15
tp912
Rp913
(I1
(I3
I3
tp914
g22
I00
S'\x00\x01\x00\x00\x00\x00\x01\x00\x01'
p915
tp916
bsg27
I3
sg28
(lp917
sbaI960
aa(lp918
g3
(g4
g5
Ntp919
Rp920
(dp921
g9
S'3-165'
p922
sg11
g12
(g13
(I0
tp923
g15
tp924
Rp925
(I1
(I3
I3
tp926
g22
I00
S'\x00\x01\x00\x01\x00\x00\x01\x00\x01'
p927
tp928
bsg27
I3
sg28
(lp929
sbaI536
aa(lp930
g3
(g4
g5
Ntp931
Rp932
(dp933
g9
S'3-193'
p934
sg11
g12
(g13
(I0
tp935
g15
tp936
Rp937
(I1
(I3
I3
tp938
g22
I00
S'\x00\x01\x01\x00\x00\x00\x00\x00\x01'
p939
tp940
bsg27
I3
sg28
(lp941
sbaI1223
aa(lp942
g3
(g4
g5
Ntp943
Rp944
(dp945
g9
S'3-194'
p946
sg11
g12
(g13
(I0
tp947
g15
tp948
Rp949
(I1
(I3
I3
tp950
g22
I00
S'\x00\x01\x01\x00\x00\x00\x00\x01\x00'
p951
tp952
bsg27
I3
sg28
(lp953
sbaI340
aa(lp954
g3
(g4
g5
Ntp955
Rp956
(dp957
g9
S'3-195'
p958
sg11
g12
(g13
(I0
tp959
g15
tp960
Rp961
(I1
(I3
I3
tp962
g22
I00
S'\x00\x01\x01\x00\x00\x00\x00\x01\x01'
p963
tp964
bsg27
I3
sg28
(lp965
sbaI673
aa(lp966
g3
(g4
g5
Ntp967
Rp968
(dp969
g9
S'3-197'
p970
sg11
g12
(g13
(I0
tp971
g15
tp972
Rp973
(I1
(I3
I3
tp974
g22
I00
S'\x00\x01\x01\x00\x00\x00\x01\x00\x01'
p975
tp976
bsg27
I3
sg28
(lp977
sbaI386
aa(lp978
g3
(g4
g5
Ntp979
Rp980
(dp981
g9
S'3-198'
p982
sg11
g12
(g13
(I0
tp983
g15
tp984
Rp985
(I1
(I3
I3
tp986
g22
I00
S'\x00\x01\x01\x00\x00\x00\x01\x01\x00'
p987
tp988
bsg27
I3
sg28
(lp989
sbaI283
aa(lp990
g3
(g4
g5
Ntp991
Rp992
(dp993
g9
S'3-199'
p994
sg11
g12
(g13
(I0
tp995
g15
tp996
Rp997
(I1
(I3
I3
tp998
g22
I00
S'\x00\x01\x01\x00\x00\x00\x01\x01\x01'
p999
tp1000
bsg27
I3
sg28
(lp1001
sbaI450
aa(lp1002
g3
(g4
g5
Ntp1003
Rp1004
(dp1005
g9
S'3-201'
p1006
sg11
g12
(g13
(I0
tp1007
g15
tp1008
Rp1009
(I1
(I3
I3
tp1010
g22
I00
S'\x00\x01\x01\x00\x00\x01\x00\x00\x01'
p1011
tp1012
bsg27
I3
sg28
(lp1013
sbaI879
aa(lp1014
g3
(g4
g5
Ntp1015
Rp1016
(dp1017
g9
S'3-202'
p1018
sg11
g12
(g13
(I0
tp1019
g15
tp1020
Rp1021
(I1
(I3
I3
tp1022
g22
I00
S'\x00\x01\x01\x00\x00\x01\x00\x01\x00'
p1023
tp1024
bsg27
I3
sg28
(lp1025
sbaI174
aa(lp1026
g3
(g4
g5
Ntp1027
Rp1028
(dp1029
g9
S'3-203'
p1030
sg11
g12
(g13
(I0
tp1031
g15
tp1032
Rp1033
(I1
(I3
I3
tp1034
g22
I00
S'\x00\x01\x01\x00\x00\x01\x00\x01\x01'
p1035
tp1036
bsg27
I3
sg28
(lp1037
sbaI182
aa(lp1038
g3
(g4
g5
Ntp1039
Rp1040
(dp1041
g9
S'3-205'
p1042
sg11
g12
(g13
(I0
tp1043
g15
tp1044
Rp1045
(I1
(I3
I3
tp1046
g22
I00
S'\x00\x01\x01\x00\x00\x01\x01\x00\x01'
p1047
tp1048
bsg27
I3
sg28
(lp1049
sbaI338
aa(lp1050
g3
(g4
g5
Ntp1051
Rp1052
(dp1053
g9
S'3-206'
p1054
sg11
g12
(g13
(I0
tp1055
g15
tp1056
Rp1057
(I1
(I3
I3
tp1058
g22
I00
S'\x00\x01\x01\x00\x00\x01\x01\x01\x00'
p1059
tp1060
bsg27
I3
sg28
(lp1061
sbaI650
aa(lp1062
g3
(g4
g5
Ntp1063
Rp1064
(dp1065
g9
S'3-207'
p1066
sg11
g12
(g13
(I0
tp1067
g15
tp1068
Rp1069
(I1
(I3
I3
tp1070
g22
I00
S'\x00\x01\x01\x00\x00\x01\x01\x01\x01'
p1071
tp1072
bsg27
I3
sg28
(lp1073
sbaI667
aa(lp1074
g3
(g4
g5
Ntp1075
Rp1076
(dp1077
g9
S'3-209'
p1078
sg11
g12
(g13
(I0
tp1079
g15
tp1080
Rp1081
(I1
(I3
I3
tp1082
g22
I00
S'\x00\x01\x01\x00\x01\x00\x00\x00\x01'
p1083
tp1084
bsg27
I3
sg28
(lp1085
sbaI413
aa(lp1086
g3
(g4
g5
Ntp1087
Rp1088
(dp1089
g9
S'3-211'
p1090
sg11
g12
(g13
(I0
tp1091
g15
tp1092
Rp1093
(I1
(I3
I3
tp1094
g22
I00
S'\x00\x01\x01\x00\x01\x00\x00\x01\x01'
p1095
tp1096
bsg27
I3
sg28
(lp1097
sbaI322
aa(lp1098
g3
(g4
g5
Ntp1099
Rp1100
(dp1101
g9
S'3-213'
p1102
sg11
g12
(g13
(I0
tp1103
g15
tp1104
Rp1105
(I1
(I3
I3
tp1106
g22
I00
S'\x00\x01\x01\x00\x01\x00\x01\x00\x01'
p1107
tp1108
bsg27
I3
sg28
(lp1109
sbaI570
aa(lp1110
g3
(g4
g5
Ntp1111
Rp1112
(dp1113
g9
S'3-214'
p1114
sg11
g12
(g13
(I0
tp1115
g15
tp1116
Rp1117
(I1
(I3
I3
tp1118
g22
I00
S'\x00\x01\x01\x00\x01\x00\x01\x01\x00'
p1119
tp1120
bsg27
I3
sg28
(lp1121
sbaI31
aa(lp1122
g3
(g4
g5
Ntp1123
Rp1124
(dp1125
g9
S'3-215'
p1126
sg11
g12
(g13
(I0
tp1127
g15
tp1128
Rp1129
(I1
(I3
I3
tp1130
g22
I00
S'\x00\x01\x01\x00\x01\x00\x01\x01\x01'
p1131
tp1132
bsg27
I3
sg28
(lp1133
sbaI327
aa(lp1134
g3
(g4
g5
Ntp1135
Rp1136
(dp1137
g9
S'3-219'
p1138
sg11
g12
(g13
(I0
tp1139
g15
tp1140
Rp1141
(I1
(I3
I3
tp1142
g22
I00
S'\x00\x01\x01\x00\x01\x01\x00\x01\x01'
p1143
tp1144
bsg27
I3
sg28
(lp1145
sbaI145
aa(lp1146
g3
(g4
g5
Ntp1147
Rp1148
(dp1149
g9
S'3-221'
p1150
sg11
g12
(g13
(I0
tp1151
g15
tp1152
Rp1153
(I1
(I3
I3
tp1154
g22
I00
S'\x00\x01\x01\x00\x01\x01\x01\x00\x01'
p1155
tp1156
bsg27
I3
sg28
(lp1157
sbaI682
aa(lp1158
g3
(g4
g5
Ntp1159
Rp1160
(dp1161
g9
S'3-222'
p1162
sg11
g12
(g13
(I0
tp1163
g15
tp1164
Rp1165
(I1
(I3
I3
tp1166
g22
I00
S'\x00\x01\x01\x00\x01\x01\x01\x01\x00'
p1167
tp1168
bsg27
I3
sg28
(lp1169
sbaI88
aa(lp1170
g3
(g4
g5
Ntp1171
Rp1172
(dp1173
g9
S'3-223'
p1174
sg11
g12
(g13
(I0
tp1175
g15
tp1176
Rp1177
(I1
(I3
I3
tp1178
g22
I00
S'\x00\x01\x01\x00\x01\x01\x01\x01\x01'
p1179
tp1180
bsg27
I3
sg28
(lp1181
sbaI294
aa(lp1182
g3
(g4
g5
Ntp1183
Rp1184
(dp1185
g9
S'3-225'
p1186
sg11
g12
(g13
(I0
tp1187
g15
tp1188
Rp1189
(I1
(I3
I3
tp1190
g22
I00
S'\x00\x01\x01\x01\x00\x00\x00\x00\x01'
p1191
tp1192
bsg27
I3
sg28
(lp1193
sbaI932
aa(lp1194
g3
(g4
g5
Ntp1195
Rp1196
(dp1197
g9
S'3-226'
p1198
sg11
g12
(g13
(I0
tp1199
g15
tp1200
Rp1201
(I1
(I3
I3
tp1202
g22
I00
S'\x00\x01\x01\x01\x00\x00\x00\x01\x00'
p1203
tp1204
bsg27
I3
sg28
(lp1205
sbaI203
aa(lp1206
g3
(g4
g5
Ntp1207
Rp1208
(dp1209
g9
S'3-227'
p1210
sg11
g12
(g13
(I0
tp1211
g15
tp1212
Rp1213
(I1
(I3
I3
tp1214
g22
I00
S'\x00\x01\x01\x01\x00\x00\x00\x01\x01'
p1215
tp1216
bsg27
I3
sg28
(lp1217
sbaI285
aa(lp1218
g3
(g4
g5
Ntp1219
Rp1220
(dp1221
g9
S'3-229'
p1222
sg11
g12
(g13
(I0
tp1223
g15
tp1224
Rp1225
(I1
(I3
I3
tp1226
g22
I00
S'\x00\x01\x01\x01\x00\x00\x01\x00\x01'
p1227
tp1228
bsg27
I3
sg28
(lp1229
sbaI492
aa(lp1230
g3
(g4
g5
Ntp1231
Rp1232
(dp1233
g9
S'3-231'
p1234
sg11
g12
(g13
(I0
tp1235
g15
tp1236
Rp1237
(I1
(I3
I3
tp1238
g22
I00
S'\x00\x01\x01\x01\x00\x00\x01\x01\x01'
p1239
tp1240
bsg27
I3
sg28
(lp1241
sbaI170
aa(lp1242
g3
(g4
g5
Ntp1243
Rp1244
(dp1245
g9
S'3-237'
p1246
sg11
g12
(g13
(I0
tp1247
g15
tp1248
Rp1249
(I1
(I3
I3
tp1250
g22
I00
S'\x00\x01\x01\x01\x00\x01\x01\x00\x01'
p1251
tp1252
bsg27
I3
sg28
(lp1253
sbaI0
aa(lp1254
g3
(g4
g5
Ntp1255
Rp1256
(dp1257
g9
S'3-238'
p1258
sg11
g12
(g13
(I0
tp1259
g15
tp1260
Rp1261
(I1
(I3
I3
tp1262
g22
I00
S'\x00\x01\x01\x01\x00\x01\x01\x01\x00'
p1263
tp1264
bsg27
I3
sg28
(lp1265
sbaI6
aa(lp1266
g3
(g4
g5
Ntp1267
Rp1268
(dp1269
g9
S'3-239'
p1270
sg11
g12
(g13
(I0
tp1271
g15
tp1272
Rp1273
(I1
(I3
I3
tp1274
g22
I00
S'\x00\x01\x01\x01\x00\x01\x01\x01\x01'
p1275
tp1276
bsg27
I3
sg28
(lp1277
sbaI142
aa(lp1278
g3
(g4
g5
Ntp1279
Rp1280
(dp1281
g9
S'3-245'
p1282
sg11
g12
(g13
(I0
tp1283
g15
tp1284
Rp1285
(I1
(I3
I3
tp1286
g22
I00
S'\x00\x01\x01\x01\x01\x00\x01\x00\x01'
p1287
tp1288
bsg27
I3
sg28
(lp1289
sbaI129
aa(lp1290
g3
(g4
g5
Ntp1291
Rp1292
(dp1293
g9
S'3-247'
p1294
sg11
g12
(g13
(I0
tp1295
g15
tp1296
Rp1297
(I1
(I3
I3
tp1298
g22
I00
S'\x00\x01\x01\x01\x01\x00\x01\x01\x01'
p1299
tp1300
bsg27
I3
sg28
(lp1301
sbaI50
aa(lp1302
g3
(g4
g5
Ntp1303
Rp1304
(dp1305
g9
S'3-255'
p1306
sg11
g12
(g13
(I0
tp1307
g15
tp1308
Rp1309
(I1
(I3
I3
tp1310
g22
I00
S'\x00\x01\x01\x01\x01\x01\x01\x01\x01'
p1311
tp1312
bsg27
I3
sg28
(lp1313
sbaI33
aa(lp1314
g3
(g4
g5
Ntp1315
Rp1316
(dp1317
g9
S'3-263'
p1318
sg11
g12
(g13
(I0
tp1319
g15
tp1320
Rp1321
(I1
(I3
I3
tp1322
g22
I00
S'\x01\x00\x00\x00\x00\x00\x01\x01\x01'
p1323
tp1324
bsg27
I3
sg28
(lp1325
sbaI747
aa(lp1326
g3
(g4
g5
Ntp1327
Rp1328
(dp1329
g9
S'3-269'
p1330
sg11
g12
(g13
(I0
tp1331
g15
tp1332
Rp1333
(I1
(I3
I3
tp1334
g22
I00
S'\x01\x00\x00\x00\x00\x01\x01\x00\x01'
p1335
tp1336
bsg27
I3
sg28
(lp1337
sbaI1032
aa(lp1338
g3
(g4
g5
Ntp1339
Rp1340
(dp1341
g9
S'3-271'
p1342
sg11
g12
(g13
(I0
tp1343
g15
tp1344
Rp1345
(I1
(I3
I3
tp1346
g22
I00
S'\x01\x00\x00\x00\x00\x01\x01\x01\x01'
p1347
tp1348
bsg27
I3
sg28
(lp1349
sbaI508
aa(lp1350
g3
(g4
g5
Ntp1351
Rp1352
(dp1353
g9
S'3-279'
p1354
sg11
g12
(g13
(I0
tp1355
g15
tp1356
Rp1357
(I1
(I3
I3
tp1358
g22
I00
S'\x01\x00\x00\x00\x01\x00\x01\x01\x01'
p1359
tp1360
bsg27
I3
sg28
(lp1361
sbaI186
aa(lp1362
g3
(g4
g5
Ntp1363
Rp1364
(dp1365
g9
S'3-285'
p1366
sg11
g12
(g13
(I0
tp1367
g15
tp1368
Rp1369
(I1
(I3
I3
tp1370
g22
I00
S'\x01\x00\x00\x00\x01\x01\x01\x00\x01'
p1371
tp1372
bsg27
I3
sg28
(lp1373
sbaI205
aa(lp1374
g3
(g4
g5
Ntp1375
Rp1376
(dp1377
g9
S'3-286'
p1378
sg11
g12
(g13
(I0
tp1379
g15
tp1380
Rp1381
(I1
(I3
I3
tp1382
g22
I00
S'\x01\x00\x00\x00\x01\x01\x01\x01\x00'
p1383
tp1384
bsg27
I3
sg28
(lp1385
sbaI196
aa(lp1386
g3
(g4
g5
Ntp1387
Rp1388
(dp1389
g9
S'3-287'
p1390
sg11
g12
(g13
(I0
tp1391
g15
tp1392
Rp1393
(I1
(I3
I3
tp1394
g22
I00
S'\x01\x00\x00\x00\x01\x01\x01\x01\x01'
p1395
tp1396
bsg27
I3
sg28
(lp1397
sbaI201
aa(lp1398
g3
(g4
g5
Ntp1399
Rp1400
(dp1401
g9
S'3-290'
p1402
sg11
g12
(g13
(I0
tp1403
g15
tp1404
Rp1405
(I1
(I3
I3
tp1406
g22
I00
S'\x01\x00\x00\x01\x00\x00\x00\x01\x00'
p1407
tp1408
bsg27
I3
sg28
(lp1409
sbaI705
aa(lp1410
g3
(g4
g5
Ntp1411
Rp1412
(dp1413
g9
S'3-291'
p1414
sg11
g12
(g13
(I0
tp1415
g15
tp1416
Rp1417
(I1
(I3
I3
tp1418
g22
I00
S'\x01\x00\x00\x01\x00\x00\x00\x01\x01'
p1419
tp1420
bsg27
I3
sg28
(lp1421
sbaI632
aa(lp1422
g3
(g4
g5
Ntp1423
Rp1424
(dp1425
g9
S'3-293'
p1426
sg11
g12
(g13
(I0
tp1427
g15
tp1428
Rp1429
(I1
(I3
I3
tp1430
g22
I00
S'\x01\x00\x00\x01\x00\x00\x01\x00\x01'
p1431
tp1432
bsg27
I3
sg28
(lp1433
sbaI452
aa(lp1434
g3
(g4
g5
Ntp1435
Rp1436
(dp1437
g9
S'3-295'
p1438
sg11
g12
(g13
(I0
tp1439
g15
tp1440
Rp1441
(I1
(I3
I3
tp1442
g22
I00
S'\x01\x00\x00\x01\x00\x00\x01\x01\x01'
p1443
tp1444
bsg27
I3
sg28
(lp1445
sbaI65
aa(lp1446
g3
(g4
g5
Ntp1447
Rp1448
(dp1449
g9
S'3-296'
p1450
sg11
g12
(g13
(I0
tp1451
g15
tp1452
Rp1453
(I1
(I3
I3
tp1454
g22
I00
S'\x01\x00\x00\x01\x00\x01\x00\x00\x00'
p1455
tp1456
bsg27
I3
sg28
(lp1457
sbaI1154
aa(lp1458
g3
(g4
g5
Ntp1459
Rp1460
(dp1461
g9
S'3-297'
p1462
sg11
g12
(g13
(I0
tp1463
g15
tp1464
Rp1465
(I1
(I3
I3
tp1466
g22
I00
S'\x01\x00\x00\x01\x00\x01\x00\x00\x01'
p1467
tp1468
bsg27
I3
sg28
(lp1469
sbaI258
aa(lp1470
g3
(g4
g5
Ntp1471
Rp1472
(dp1473
g9
S'3-298'
p1474
sg11
g12
(g13
(I0
tp1475
g15
tp1476
Rp1477
(I1
(I3
I3
tp1478
g22
I00
S'\x01\x00\x00\x01\x00\x01\x00\x01\x00'
p1479
tp1480
bsg27
I3
sg28
(lp1481
sbaI232
aa(lp1482
g3
(g4
g5
Ntp1483
Rp1484
(dp1485
g9
S'3-301'
p1486
sg11
g12
(g13
(I0
tp1487
g15
tp1488
Rp1489
(I1
(I3
I3
tp1490
g22
I00
S'\x01\x00\x00\x01\x00\x01\x01\x00\x01'
p1491
tp1492
bsg27
I3
sg28
(lp1493
sbaI291
aa(lp1494
g3
(g4
g5
Ntp1495
Rp1496
(dp1497
g9
S'3-302'
p1498
sg11
g12
(g13
(I0
tp1499
g15
tp1500
Rp1501
(I1
(I3
I3
tp1502
g22
I00
S'\x01\x00\x00\x01\x00\x01\x01\x01\x00'
p1503
tp1504
bsg27
I3
sg28
(lp1505
sbaI122
aa(lp1506
g3
(g4
g5
Ntp1507
Rp1508
(dp1509
g9
S'3-303'
p1510
sg11
g12
(g13
(I0
tp1511
g15
tp1512
Rp1513
(I1
(I3
I3
tp1514
g22
I00
S'\x01\x00\x00\x01\x00\x01\x01\x01\x01'
p1515
tp1516
bsg27
I3
sg28
(lp1517
sbaI117
aa(lp1518
g3
(g4
g5
Ntp1519
Rp1520
(dp1521
g9
S'3-309'
p1522
sg11
g12
(g13
(I0
tp1523
g15
tp1524
Rp1525
(I1
(I3
I3
tp1526
g22
I00
S'\x01\x00\x00\x01\x01\x00\x01\x00\x01'
p1527
tp1528
bsg27
I3
sg28
(lp1529
sbaI188
aa(lp1530
g3
(g4
g5
Ntp1531
Rp1532
(dp1533
g9
S'3-311'
p1534
sg11
g12
(g13
(I0
tp1535
g15
tp1536
Rp1537
(I1
(I3
I3
tp1538
g22
I00
S'\x01\x00\x00\x01\x01\x00\x01\x01\x01'
p1539
tp1540
bsg27
I3
sg28
(lp1541
sbaI88
aa(lp1542
g3
(g4
g5
Ntp1543
Rp1544
(dp1545
g9
S'3-319'
p1546
sg11
g12
(g13
(I0
tp1547
g15
tp1548
Rp1549
(I1
(I3
I3
tp1550
g22
I00
S'\x01\x00\x00\x01\x01\x01\x01\x01\x01'
p1551
tp1552
bsg27
I3
sg28
(lp1553
sbaI27
aa(lp1554
g3
(g4
g5
Ntp1555
Rp1556
(dp1557
g9
S'3-323'
p1558
sg11
g12
(g13
(I0
tp1559
g15
tp1560
Rp1561
(I1
(I3
I3
tp1562
g22
I00
S'\x01\x00\x01\x00\x00\x00\x00\x01\x01'
p1563
tp1564
bsg27
I3
sg28
(lp1565
sbaI690
aa(lp1566
g3
(g4
g5
Ntp1567
Rp1568
(dp1569
g9
S'3-327'
p1570
sg11
g12
(g13
(I0
tp1571
g15
tp1572
Rp1573
(I1
(I3
I3
tp1574
g22
I00
S'\x01\x00\x01\x00\x00\x00\x01\x01\x01'
p1575
tp1576
bsg27
I3
sg28
(lp1577
sbaI267
aa(lp1578
g3
(g4
g5
Ntp1579
Rp1580
(dp1581
g9
S'3-331'
p1582
sg11
g12
(g13
(I0
tp1583
g15
tp1584
Rp1585
(I1
(I3
I3
tp1586
g22
I00
S'\x01\x00\x01\x00\x00\x01\x00\x01\x01'
p1587
tp1588
bsg27
I3
sg28
(lp1589
sbaI359
aa(lp1590
g3
(g4
g5
Ntp1591
Rp1592
(dp1593
g9
S'3-333'
p1594
sg11
g12
(g13
(I0
tp1595
g15
tp1596
Rp1597
(I1
(I3
I3
tp1598
g22
I00
S'\x01\x00\x01\x00\x00\x01\x01\x00\x01'
p1599
tp1600
bsg27
I3
sg28
(lp1601
sbaI463
aa(lp1602
g3
(g4
g5
Ntp1603
Rp1604
(dp1605
g9
S'3-335'
p1606
sg11
g12
(g13
(I0
tp1607
g15
tp1608
Rp1609
(I1
(I3
I3
tp1610
g22
I00
S'\x01\x00\x01\x00\x00\x01\x01\x01\x01'
p1611
tp1612
bsg27
I3
sg28
(lp1613
sbaI192
aa(lp1614
g3
(g4
g5
Ntp1615
Rp1616
(dp1617
g9
S'3-338'
p1618
sg11
g12
(g13
(I0
tp1619
g15
tp1620
Rp1621
(I1
(I3
I3
tp1622
g22
I00
S'\x01\x00\x01\x00\x01\x00\x00\x01\x00'
p1623
tp1624
bsg27
I3
sg28
(lp1625
sbaI223
aa(lp1626
g3
(g4
g5
Ntp1627
Rp1628
(dp1629
g9
S'3-339'
p1630
sg11
g12
(g13
(I0
tp1631
g15
tp1632
Rp1633
(I1
(I3
I3
tp1634
g22
I00
S'\x01\x00\x01\x00\x01\x00\x00\x01\x01'
p1635
tp1636
bsg27
I3
sg28
(lp1637
sbaI367
aa(lp1638
g3
(g4
g5
Ntp1639
Rp1640
(dp1641
g9
S'3-343'
p1642
sg11
g12
(g13
(I0
tp1643
g15
tp1644
Rp1645
(I1
(I3
I3
tp1646
g22
I00
S'\x01\x00\x01\x00\x01\x00\x01\x01\x01'
p1647
tp1648
bsg27
I3
sg28
(lp1649
sbaI22
aa(lp1650
g3
(g4
g5
Ntp1651
Rp1652
(dp1653
g9
S'3-346'
p1654
sg11
g12
(g13
(I0
tp1655
g15
tp1656
Rp1657
(I1
(I3
I3
tp1658
g22
I00
S'\x01\x00\x01\x00\x01\x01\x00\x01\x00'
p1659
tp1660
bsg27
I3
sg28
(lp1661
sbaI217
aa(lp1662
g3
(g4
g5
Ntp1663
Rp1664
(dp1665
g9
S'3-347'
p1666
sg11
g12
(g13
(I0
tp1667
g15
tp1668
Rp1669
(I1
(I3
I3
tp1670
g22
I00
S'\x01\x00\x01\x00\x01\x01\x00\x01\x01'
p1671
tp1672
bsg27
I3
sg28
(lp1673
sbaI186
aa(lp1674
g3
(g4
g5
Ntp1675
Rp1676
(dp1677
g9
S'3-349'
p1678
sg11
g12
(g13
(I0
tp1679
g15
tp1680
Rp1681
(I1
(I3
I3
tp1682
g22
I00
S'\x01\x00\x01\x00\x01\x01\x01\x00\x01'
p1683
tp1684
bsg27
I3
sg28
(lp1685
sbaI88
aa(lp1686
g3
(g4
g5
Ntp1687
Rp1688
(dp1689
g9
S'3-351'
p1690
sg11
g12
(g13
(I0
tp1691
g15
tp1692
Rp1693
(I1
(I3
I3
tp1694
g22
I00
S'\x01\x00\x01\x00\x01\x01\x01\x01\x01'
p1695
tp1696
bsg27
I3
sg28
(lp1697
sbaI194
aa(lp1698
g3
(g4
g5
Ntp1699
Rp1700
(dp1701
g9
S'3-354'
p1702
sg11
g12
(g13
(I0
tp1703
g15
tp1704
Rp1705
(I1
(I3
I3
tp1706
g22
I00
S'\x01\x00\x01\x01\x00\x00\x00\x01\x00'
p1707
tp1708
bsg27
I3
sg28
(lp1709
sbaI204
aa(lp1710
g3
(g4
g5
Ntp1711
Rp1712
(dp1713
g9
S'3-355'
p1714
sg11
g12
(g13
(I0
tp1715
g15
tp1716
Rp1717
(I1
(I3
I3
tp1718
g22
I00
S'\x01\x00\x01\x01\x00\x00\x00\x01\x01'
p1719
tp1720
bsg27
I3
sg28
(lp1721
sbaI263
aa(lp1722
g3
(g4
g5
Ntp1723
Rp1724
(dp1725
g9
S'3-359'
p1726
sg11
g12
(g13
(I0
tp1727
g15
tp1728
Rp1729
(I1
(I3
I3
tp1730
g22
I00
S'\x01\x00\x01\x01\x00\x00\x01\x01\x01'
p1731
tp1732
bsg27
I3
sg28
(lp1733
sbaI78
aa(lp1734
g3
(g4
g5
Ntp1735
Rp1736
(dp1737
g9
S'3-362'
p1738
sg11
g12
(g13
(I0
tp1739
g15
tp1740
Rp1741
(I1
(I3
I3
tp1742
g22
I00
S'\x01\x00\x01\x01\x00\x01\x00\x01\x00'
p1743
tp1744
bsg27
I3
sg28
(lp1745
sbaI50
aa(lp1746
g3
(g4
g5
Ntp1747
Rp1748
(dp1749
g9
S'3-363'
p1750
sg11
g12
(g13
(I0
tp1751
g15
tp1752
Rp1753
(I1
(I3
I3
tp1754
g22
I00
S'\x01\x00\x01\x01\x00\x01\x00\x01\x01'
p1755
tp1756
bsg27
I3
sg28
(lp1757
sbaI162
aa(lp1758
g3
(g4
g5
Ntp1759
Rp1760
(dp1761
g9
S'3-365'
p1762
sg11
g12
(g13
(I0
tp1763
g15
tp1764
Rp1765
(I1
(I3
I3
tp1766
g22
I00
S'\x01\x00\x01\x01\x00\x01\x01\x00\x01'
p1767
tp1768
bsg27
I3
sg28
(lp1769
sbaI39
aa(lp1770
g3
(g4
g5
Ntp1771
Rp1772
(dp1773
g9
S'3-367'
p1774
sg11
g12
(g13
(I0
tp1775
g15
tp1776
Rp1777
(I1
(I3
I3
tp1778
g22
I00
S'\x01\x00\x01\x01\x00\x01\x01\x01\x01'
p1779
tp1780
bsg27
I3
sg28
(lp1781
sbaI159
aa(lp1782
g3
(g4
g5
Ntp1783
Rp1784
(dp1785
g9
S'3-370'
p1786
sg11
g12
(g13
(I0
tp1787
g15
tp1788
Rp1789
(I1
(I3
I3
tp1790
g22
I00
S'\x01\x00\x01\x01\x01\x00\x00\x01\x00'
p1791
tp1792
bsg27
I3
sg28
(lp1793
sbaI268
aa(lp1794
g3
(g4
g5
Ntp1795
Rp1796
(dp1797
g9
S'3-371'
p1798
sg11
g12
(g13
(I0
tp1799
g15
tp1800
Rp1801
(I1
(I3
I3
tp1802
g22
I00
S'\x01\x00\x01\x01\x01\x00\x00\x01\x01'
p1803
tp1804
bsg27
I3
sg28
(lp1805
sbaI20
aa(lp1806
g3
(g4
g5
Ntp1807
Rp1808
(dp1809
g9
S'3-375'
p1810
sg11
g12
(g13
(I0
tp1811
g15
tp1812
Rp1813
(I1
(I3
I3
tp1814
g22
I00
S'\x01\x00\x01\x01\x01\x00\x01\x01\x01'
p1815
tp1816
bsg27
I3
sg28
(lp1817
sbaI57
aa(lp1818
g3
(g4
g5
Ntp1819
Rp1820
(dp1821
g9
S'3-376'
p1822
sg11
g12
(g13
(I0
tp1823
g15
tp1824
Rp1825
(I1
(I3
I3
tp1826
g22
I00
S'\x01\x00\x01\x01\x01\x01\x00\x00\x00'
p1827
tp1828
bsg27
I3
sg28
(lp1829
sbaI48
aa(lp1830
g3
(g4
g5
Ntp1831
Rp1832
(dp1833
g9
S'3-377'
p1834
sg11
g12
(g13
(I0
tp1835
g15
tp1836
Rp1837
(I1
(I3
I3
tp1838
g22
I00
S'\x01\x00\x01\x01\x01\x01\x00\x00\x01'
p1839
tp1840
bsg27
I3
sg28
(lp1841
sbaI56
aa(lp1842
g3
(g4
g5
Ntp1843
Rp1844
(dp1845
g9
S'3-378'
p1846
sg11
g12
(g13
(I0
tp1847
g15
tp1848
Rp1849
(I1
(I3
I3
tp1850
g22
I00
S'\x01\x00\x01\x01\x01\x01\x00\x01\x00'
p1851
tp1852
bsg27
I3
sg28
(lp1853
sbaI37
aa(lp1854
g3
(g4
g5
Ntp1855
Rp1856
(dp1857
g9
S'3-379'
p1858
sg11
g12
(g13
(I0
tp1859
g15
tp1860
Rp1861
(I1
(I3
I3
tp1862
g22
I00
S'\x01\x00\x01\x01\x01\x01\x00\x01\x01'
p1863
tp1864
bsg27
I3
sg28
(lp1865
sbaI305
aa(lp1866
g3
(g4
g5
Ntp1867
Rp1868
(dp1869
g9
S'3-381'
p1870
sg11
g12
(g13
(I0
tp1871
g15
tp1872
Rp1873
(I1
(I3
I3
tp1874
g22
I00
S'\x01\x00\x01\x01\x01\x01\x01\x00\x01'
p1875
tp1876
bsg27
I3
sg28
(lp1877
sbaI204
aa(lp1878
g3
(g4
g5
Ntp1879
Rp1880
(dp1881
g9
S'3-382'
p1882
sg11
g12
(g13
(I0
tp1883
g15
tp1884
Rp1885
(I1
(I3
I3
tp1886
g22
I00
S'\x01\x00\x01\x01\x01\x01\x01\x01\x00'
p1887
tp1888
bsg27
I3
sg28
(lp1889
sbaI154
aa(lp1890
g3
(g4
g5
Ntp1891
Rp1892
(dp1893
g9
S'3-383'
p1894
sg11
g12
(g13
(I0
tp1895
g15
tp1896
Rp1897
(I1
(I3
I3
tp1898
g22
I00
S'\x01\x00\x01\x01\x01\x01\x01\x01\x01'
p1899
tp1900
bsg27
I3
sg28
(lp1901
sbaI122
aa(lp1902
g3
(g4
g5
Ntp1903
Rp1904
(dp1905
g9
S'3-386'
p1906
sg11
g12
(g13
(I0
tp1907
g15
tp1908
Rp1909
(I1
(I3
I3
tp1910
g22
I00
S'\x01\x01\x00\x00\x00\x00\x00\x01\x00'
p1911
tp1912
bsg27
I3
sg28
(lp1913
sbaI692
aa(lp1914
g3
(g4
g5
Ntp1915
Rp1916
(dp1917
g9
S'3-387'
p1918
sg11
g12
(g13
(I0
tp1919
g15
tp1920
Rp1921
(I1
(I3
I3
tp1922
g22
I00
S'\x01\x01\x00\x00\x00\x00\x00\x01\x01'
p1923
tp1924
bsg27
I3
sg28
(lp1925
sbaI137
aa(lp1926
g3
(g4
g5
Ntp1927
Rp1928
(dp1929
g9
S'3-392'
p1930
sg11
g12
(g13
(I0
tp1931
g15
tp1932
Rp1933
(I1
(I3
I3
tp1934
g22
I00
S'\x01\x01\x00\x00\x00\x01\x00\x00\x00'
p1935
tp1936
bsg27
I3
sg28
(lp1937
sbaI1037
aa(lp1938
g3
(g4
g5
Ntp1939
Rp1940
(dp1941
g9
S'3-394'
p1942
sg11
g12
(g13
(I0
tp1943
g15
tp1944
Rp1945
(I1
(I3
I3
tp1946
g22
I00
S'\x01\x01\x00\x00\x00\x01\x00\x01\x00'
p1947
tp1948
bsg27
I3
sg28
(lp1949
sbaI427
aa(lp1950
g3
(g4
g5
Ntp1951
Rp1952
(dp1953
g9
S'3-402'
p1954
sg11
g12
(g13
(I0
tp1955
g15
tp1956
Rp1957
(I1
(I3
I3
tp1958
g22
I00
S'\x01\x01\x00\x00\x01\x00\x00\x01\x00'
p1959
tp1960
bsg27
I3
sg28
(lp1961
sbaI267
aa(lp1962
g3
(g4
g5
Ntp1963
Rp1964
(dp1965
g9
S'3-403'
p1966
sg11
g12
(g13
(I0
tp1967
g15
tp1968
Rp1969
(I1
(I3
I3
tp1970
g22
I00
S'\x01\x01\x00\x00\x01\x00\x00\x01\x01'
p1971
tp1972
bsg27
I3
sg28
(lp1973
sbaI0
aa(lp1974
g3
(g4
g5
Ntp1975
Rp1976
(dp1977
g9
S'3-418'
p1978
sg11
g12
(g13
(I0
tp1979
g15
tp1980
Rp1981
(I1
(I3
I3
tp1982
g22
I00
S'\x01\x01\x00\x01\x00\x00\x00\x01\x00'
p1983
tp1984
bsg27
I3
sg28
(lp1985
sbaI551
aa(lp1986
g3
(g4
g5
Ntp1987
Rp1988
(dp1989
g9
S'3-419'
p1990
sg11
g12
(g13
(I0
tp1991
g15
tp1992
Rp1993
(I1
(I3
I3
tp1994
g22
I00
S'\x01\x01\x00\x01\x00\x00\x00\x01\x01'
p1995
tp1996
bsg27
I3
sg28
(lp1997
sbaI268
aa(lp1998
g3
(g4
g5
Ntp1999
Rp2000
(dp2001
g9
S'3-423'
p2002
sg11
g12
(g13
(I0
tp2003
g15
tp2004
Rp2005
(I1
(I3
I3
tp2006
g22
I00
S'\x01\x01\x00\x01\x00\x00\x01\x01\x01'
p2007
tp2008
bsg27
I3
sg28
(lp2009
sbaI157
aa(lp2010
g3
(g4
g5
Ntp2011
Rp2012
(dp2013
g9
S'3-424'
p2014
sg11
g12
(g13
(I0
tp2015
g15
tp2016
Rp2017
(I1
(I3
I3
tp2018
g22
I00
S'\x01\x01\x00\x01\x00\x01\x00\x00\x00'
p2019
tp2020
bsg27
I3
sg28
(lp2021
sbaI885
aa(lp2022
g3
(g4
g5
Ntp2023
Rp2024
(dp2025
g9
S'3-425'
p2026
sg11
g12
(g13
(I0
tp2027
g15
tp2028
Rp2029
(I1
(I3
I3
tp2030
g22
I00
S'\x01\x01\x00\x01\x00\x01\x00\x00\x01'
p2031
tp2032
bsg27
I3
sg28
(lp2033
sbaI146
aa(lp2034
g3
(g4
g5
Ntp2035
Rp2036
(dp2037
g9
S'3-426'
p2038
sg11
g12
(g13
(I0
tp2039
g15
tp2040
Rp2041
(I1
(I3
I3
tp2042
g22
I00
S'\x01\x01\x00\x01\x00\x01\x00\x01\x00'
p2043
tp2044
bsg27
I3
sg28
(lp2045
sbaI157
aa(lp2046
g3
(g4
g5
Ntp2047
Rp2048
(dp2049
g9
S'3-427'
p2050
sg11
g12
(g13
(I0
tp2051
g15
tp2052
Rp2053
(I1
(I3
I3
tp2054
g22
I00
S'\x01\x01\x00\x01\x00\x01\x00\x01\x01'
p2055
tp2056
bsg27
I3
sg28
(lp2057
sbaI141
aa(lp2058
g3
(g4
g5
Ntp2059
Rp2060
(dp2061
g9
S'3-430'
p2062
sg11
g12
(g13
(I0
tp2063
g15
tp2064
Rp2065
(I1
(I3
I3
tp2066
g22
I00
S'\x01\x01\x00\x01\x00\x01\x01\x01\x00'
p2067
tp2068
bsg27
I3
sg28
(lp2069
sbaI19
aa(lp2070
g3
(g4
g5
Ntp2071
Rp2072
(dp2073
g9
S'3-450'
p2074
sg11
g12
(g13
(I0
tp2075
g15
tp2076
Rp2077
(I1
(I3
I3
tp2078
g22
I00
S'\x01\x01\x01\x00\x00\x00\x00\x01\x00'
p2079
tp2080
bsg27
I3
sg28
(lp2081
sbaI346
aa(lp2082
g3
(g4
g5
Ntp2083
Rp2084
(dp2085
g9
S'3-451'
p2086
sg11
g12
(g13
(I0
tp2087
g15
tp2088
Rp2089
(I1
(I3
I3
tp2090
g22
I00
S'\x01\x01\x01\x00\x00\x00\x00\x01\x01'
p2091
tp2092
bsg27
I3
sg28
(lp2093
sbaI61
aa(lp2094
g3
(g4
g5
Ntp2095
Rp2096
(dp2097
g9
S'3-455'
p2098
sg11
g12
(g13
(I0
tp2099
g15
tp2100
Rp2101
(I1
(I3
I3
tp2102
g22
I00
S'\x01\x01\x01\x00\x00\x00\x01\x01\x01'
p2103
tp2104
bsg27
I3
sg28
(lp2105
sbaI29
aa(lp2106
g3
(g4
g5
Ntp2107
Rp2108
(dp2109
g9
S'3-458'
p2110
sg11
g12
(g13
(I0
tp2111
g15
tp2112
Rp2113
(I1
(I3
I3
tp2114
g22
I00
S'\x01\x01\x01\x00\x00\x01\x00\x01\x00'
p2115
tp2116
bsg27
I3
sg28
(lp2117
sbaI226
aa(lp2118
g3
(g4
g5
Ntp2119
Rp2120
(dp2121
g9
S'3-463'
p2122
sg11
g12
(g13
(I0
tp2123
g15
tp2124
Rp2125
(I1
(I3
I3
tp2126
g22
I00
S'\x01\x01\x01\x00\x00\x01\x01\x01\x01'
p2127
tp2128
bsg27
I3
sg28
(lp2129
sbaI186
aa(lp2130
g3
(g4
g5
Ntp2131
Rp2132
(dp2133
g9
S'3-466'
p2134
sg11
g12
(g13
(I0
tp2135
g15
tp2136
Rp2137
(I1
(I3
I3
tp2138
g22
I00
S'\x01\x01\x01\x00\x01\x00\x00\x01\x00'
p2139
tp2140
bsg27
I3
sg28
(lp2141
sbaI145
aa(lp2142
g3
(g4
g5
Ntp2143
Rp2144
(dp2145
g9
S'3-467'
p2146
sg11
g12
(g13
(I0
tp2147
g15
tp2148
Rp2149
(I1
(I3
I3
tp2150
g22
I00
S'\x01\x01\x01\x00\x01\x00\x00\x01\x01'
p2151
tp2152
bsg27
I3
sg28
(lp2153
sbaI100
aa(lp2154
g3
(g4
g5
Ntp2155
Rp2156
(dp2157
g9
S'3-471'
p2158
sg11
g12
(g13
(I0
tp2159
g15
tp2160
Rp2161
(I1
(I3
I3
tp2162
g22
I00
S'\x01\x01\x01\x00\x01\x00\x01\x01\x01'
p2163
tp2164
bsg27
I3
sg28
(lp2165
sbaI16
aa(lp2166
g3
(g4
g5
Ntp2167
Rp2168
(dp2169
g9
S'3-474'
p2170
sg11
g12
(g13
(I0
tp2171
g15
tp2172
Rp2173
(I1
(I3
I3
tp2174
g22
I00
S'\x01\x01\x01\x00\x01\x01\x00\x01\x00'
p2175
tp2176
bsg27
I3
sg28
(lp2177
sbaI50
aa(lp2178
g3
(g4
g5
Ntp2179
Rp2180
(dp2181
g9
S'3-475'
p2182
sg11
g12
(g13
(I0
tp2183
g15
tp2184
Rp2185
(I1
(I3
I3
tp2186
g22
I00
S'\x01\x01\x01\x00\x01\x01\x00\x01\x01'
p2187
tp2188
bsg27
I3
sg28
(lp2189
sbaI11
aa(lp2190
g3
(g4
g5
Ntp2191
Rp2192
(dp2193
g9
S'3-479'
p2194
sg11
g12
(g13
(I0
tp2195
g15
tp2196
Rp2197
(I1
(I3
I3
tp2198
g22
I00
S'\x01\x01\x01\x00\x01\x01\x01\x01\x01'
p2199
tp2200
bsg27
I3
sg28
(lp2201
sbaI123
aa(lp2202
g3
(g4
g5
Ntp2203
Rp2204
(dp2205
g9
S'3-482'
p2206
sg11
g12
(g13
(I0
tp2207
g15
tp2208
Rp2209
(I1
(I3
I3
tp2210
g22
I00
S'\x01\x01\x01\x01\x00\x00\x00\x01\x00'
p2211
tp2212
bsg27
I3
sg28
(lp2213
sbaI88
aa(lp2214
g3
(g4
g5
Ntp2215
Rp2216
(dp2217
g9
S'3-483'
p2218
sg11
g12
(g13
(I0
tp2219
g15
tp2220
Rp2221
(I1
(I3
I3
tp2222
g22
I00
S'\x01\x01\x01\x01\x00\x00\x00\x01\x01'
p2223
tp2224
bsg27
I3
sg28
(lp2225
sbaI68
aa(lp2226
g3
(g4
g5
Ntp2227
Rp2228
(dp2229
g9
S'3-490'
p2230
sg11
g12
(g13
(I0
tp2231
g15
tp2232
Rp2233
(I1
(I3
I3
tp2234
g22
I00
S'\x01\x01\x01\x01\x00\x01\x00\x01\x00'
p2235
tp2236
bsg27
I3
sg28
(lp2237
sbaI45
aa(lp2238
g3
(g4
g5
Ntp2239
Rp2240
(dp2241
g9
S'3-491'
p2242
sg11
g12
(g13
(I0
tp2243
g15
tp2244
Rp2245
(I1
(I3
I3
tp2246
g22
I00
S'\x01\x01\x01\x01\x00\x01\x00\x01\x01'
p2247
tp2248
bsg27
I3
sg28
(lp2249
sbaI32
aa(lp2250
g3
(g4
g5
Ntp2251
Rp2252
(dp2253
g9
S'3-495'
p2254
sg11
g12
(g13
(I0
tp2255
g15
tp2256
Rp2257
(I1
(I3
I3
tp2258
g22
I00
S'\x01\x01\x01\x01\x00\x01\x01\x01\x01'
p2259
tp2260
bsg27
I3
sg28
(lp2261
sbaI20
aa(lp2262
g3
(g4
g5
Ntp2263
Rp2264
(dp2265
g9
S'3-498'
p2266
sg11
g12
(g13
(I0
tp2267
g15
tp2268
Rp2269
(I1
(I3
I3
tp2270
g22
I00
S'\x01\x01\x01\x01\x01\x00\x00\x01\x00'
p2271
tp2272
bsg27
I3
sg28
(lp2273
sbaI79
aa(lp2274
g3
(g4
g5
Ntp2275
Rp2276
(dp2277
g9
S'3-499'
p2278
sg11
g12
(g13
(I0
tp2279
g15
tp2280
Rp2281
(I1
(I3
I3
tp2282
g22
I00
S'\x01\x01\x01\x01\x01\x00\x00\x01\x01'
p2283
tp2284
bsg27
I3
sg28
(lp2285
sbaI33
aa(lp2286
g3
(g4
g5
Ntp2287
Rp2288
(dp2289
g9
S'3-511'
p2290
sg11
g12
(g13
(I0
tp2291
g15
tp2292
Rp2293
(I1
(I3
I3
tp2294
g22
I00
S'\x01\x01\x01\x01\x01\x01\x01\x01\x01'
p2295
tp2296
bsg27
I3
sg28
(lp2297
sbaI16
aa(lp2298
g3
(g4
g5
Ntp2299
Rp2300
(dp2301
g9
S'3-161.0'
p2302
sg11
g12
(g13
(I0
tp2303
g15
tp2304
Rp2305
(I1
(I3
I3
tp2306
g19
(S'f8'
p2307
I0
I1
tp2308
Rp2309
(I3
S'<'
p2310
NNNI-1
I-1
I0
tp2311
bI00
S'\x00\x00\x00\x00\x00\x00\x00\x00\x00\x00\x00\x00\x00\x00\xf0?\x00\x00\x00\x00\x00\x00\x00\x00\x00\x00\x00\x00\x00\x00\xf0?\x00\x00\x00\x00\x00\x00\x00\x00\x00\x00\x00\x00\x00\x00\x00\x00\x00\x00\x00\x00\x00\x00\x00\x00\x00\x00\x00\x00\x00\x00\x00\x00\x00\x00\x00\x00\x00\x00\xf0?'
p2312
tp2313
bsg27
I3
sg28
(lp2314
sbaI537
aa(lp2315
g3
(g4
g5
Ntp2316
Rp2317
(dp2318
g9
S'3-177.0'
p2319
sg11
g12
(g13
(I0
tp2320
g15
tp2321
Rp2322
(I1
(I3
I3
tp2323
g2309
I00
S'\x00\x00\x00\x00\x00\x00\x00\x00\x00\x00\x00\x00\x00\x00\xf0?\x00\x00\x00\x00\x00\x00\x00\x00\x00\x00\x00\x00\x00\x00\xf0?\x00\x00\x00\x00\x00\x00\xf0?\x00\x00\x00\x00\x00\x00\x00\x00\x00\x00\x00\x00\x00\x00\x00\x00\x00\x00\x00\x00\x00\x00\x00\x00\x00\x00\x00\x00\x00\x00\xf0?'
p2324
tp2325
bsg27
I3
sg28
(lp2326
sbaI220
aa(lp2327
g3
(g4
g5
Ntp2328
Rp2329
(dp2330
g9
S'3-417.0'
p2331
sg11
g12
(g13
(I0
tp2332
g15
tp2333
Rp2334
(I1
(I3
I3
tp2335
g2309
I00
S'\x00\x00\x00\x00\x00\x00\xf0?\x00\x00\x00\x00\x00\x00\xf0?\x00\x00\x00\x00\x00\x00\x00\x00\x00\x00\x00\x00\x00\x00\xf0?\x00\x00\x00\x00\x00\x00\x00\x00\x00\x00\x00\x00\x00\x00\x00\x00\x00\x00\x00\x00\x00\x00\x00\x00\x00\x00\x00\x00\x00\x00\x00\x00\x00\x00\x00\x00\x00\x00\xf0?'
p2336
tp2337
bsg27
I3
sg28
(lp2338
sbaI308
aa(lp2339
g3
(g4
g5
Ntp2340
Rp2341
(dp2342
g9
S'3-433.0'
p2343
sg11
g12
(g13
(I0
tp2344
g15
tp2345
Rp2346
(I1
(I3
I3
tp2347
g2309
I00
S'\x00\x00\x00\x00\x00\x00\xf0?\x00\x00\x00\x00\x00\x00\xf0?\x00\x00\x00\x00\x00\x00\x00\x00\x00\x00\x00\x00\x00\x00\xf0?\x00\x00\x00\x00\x00\x00\xf0?\x00\x00\x00\x00\x00\x00\x00\x00\x00\x00\x00\x00\x00\x00\x00\x00\x00\x00\x00\x00\x00\x00\x00\x00\x00\x00\x00\x00\x00\x00\xf0?'
p2348
tp2349
bsg27
I3
sg28
(lp2350
sbaI166
aaag1
ag1
ag1
ag1
ag1
ag1
ag1
ag1
ag1
a.